; Function Attrs: nounwind uwtable
define dso_local i32 @set_sparse_index_config(ptr noundef %0, i32 noundef %1) local_unnamed_addr #0 {
  %.not = icmp eq i32 %1, 0
  %3 = select i1 %.not, ptr @.str.2, ptr @.str.1
  %4 = tail call i32 @repo_config_set_worktree_gently(ptr noundef %0, ptr noundef nonnull @.str, ptr noundef nonnull %3) #12
  tail call void @prepare_repo_settings(ptr noundef %0) #12
  %5 = getelementptr inbounds nuw i8, ptr %0, i64 284
  store i32 %1, ptr %5, align 4, !tbaa !4
  ret i32 %4
}